00000000004021cf <start_farm>:
  4021cf:	f3 0f 1e fa          	endbr64 
  4021d3:	b8 01 00 00 00       	mov    $0x1,%eax
  4021d8:	c3                   	retq   

00000000004021d9 <getval_473>:
  4021d9:	f3 0f 1e fa          	endbr64 
  4021dd:	b8 cf 50 90 90       	mov    $0x909050cf,%eax
  4021e2:	c3                   	retq   

00000000004021e3 <addval_292>:
  4021e3:	f3 0f 1e fa          	endbr64 
  4021e7:	8d 87 48 89 c7 c3    	lea    -0x3c3876b8(%rdi),%eax
  4021ed:	c3                   	retq   

00000000004021ee <setval_474>:
  4021ee:	f3 0f 1e fa          	endbr64 
  4021f2:	c7 07 34 48 89 c7    	movl   $0xc7894834,(%rdi)
  4021f8:	c3                   	retq   

00000000004021f9 <getval_136>:
  4021f9:	f3 0f 1e fa          	endbr64 
  4021fd:	b8 08 89 c7 c3       	mov    $0xc3c78908,%eax
  402202:	c3                   	retq   

0000000000402203 <setval_123>:
  402203:	f3 0f 1e fa          	endbr64 
  402207:	c7 07 f8 38 58 c2    	movl   $0xc25838f8,(%rdi)
  40220d:	c3                   	retq   

000000000040220e <addval_351>:
  40220e:	f3 0f 1e fa          	endbr64 
  402212:	8d 87 28 45 c3 58    	lea    0x58c34528(%rdi),%eax
  402218:	c3                   	retq   

0000000000402219 <setval_286>:
  402219:	f3 0f 1e fa          	endbr64 
  40221d:	c7 07 58 90 90 90    	movl   $0x90909058,(%rdi)
  402223:	c3                   	retq   

0000000000402224 <addval_410>:
  402224:	f3 0f 1e fa          	endbr64 
  402228:	8d 87 6f 4c 89 c7    	lea    -0x3876b391(%rdi),%eax
  40222e:	c3                   	retq   

000000000040222f <mid_farm>:
  40222f:	f3 0f 1e fa          	endbr64 
  402233:	b8 01 00 00 00       	mov    $0x1,%eax
  402238:	c3                   	retq   

0000000000402239 <add_xy>:
  402239:	f3 0f 1e fa          	endbr64 
  40223d:	48 8d 04 37          	lea    (%rdi,%rsi,1),%rax
  402241:	c3                   	retq   

0000000000402242 <setval_120>:
  402242:	f3 0f 1e fa          	endbr64 
  402246:	c7 07 89 d6 90 c3    	movl   $0xc390d689,(%rdi)
  40224c:	c3                   	retq   

000000000040224d <getval_425>:
  40224d:	f3 0f 1e fa          	endbr64 
  402251:	b8 ec 89 ca 90       	mov    $0x90ca89ec,%eax
  402256:	c3                   	retq   

0000000000402257 <addval_154>:
  402257:	f3 0f 1e fa          	endbr64 
  40225b:	8d 87 89 ca 94 db    	lea    -0x246b3577(%rdi),%eax
  402261:	c3                   	retq   

0000000000402262 <getval_322>:
  402262:	f3 0f 1e fa          	endbr64 
  402266:	b8 a3 89 d6 94       	mov    $0x94d689a3,%eax
  40226b:	c3                   	retq   

000000000040226c <setval_337>:
  40226c:	f3 0f 1e fa          	endbr64 
  402270:	c7 07 48 89 e0 c7    	movl   $0xc7e08948,(%rdi)
  402276:	c3                   	retq   

0000000000402277 <setval_167>:
  402277:	f3 0f 1e fa          	endbr64 
  40227b:	c7 07 89 ca 38 db    	movl   $0xdb38ca89,(%rdi)
  402281:	c3                   	retq   

0000000000402282 <addval_356>:
  402282:	f3 0f 1e fa          	endbr64 
  402286:	8d 87 8d c1 38 c9    	lea    -0x36c73e73(%rdi),%eax
  40228c:	c3                   	retq   

000000000040228d <setval_101>:
  40228d:	f3 0f 1e fa          	endbr64 
  402291:	c7 07 89 c1 c4 db    	movl   $0xdbc4c189,(%rdi)
  402297:	c3                   	retq   

0000000000402298 <addval_498>:
  402298:	f3 0f 1e fa          	endbr64 
  40229c:	8d 87 89 c1 20 c0    	lea    -0x3fdf3e77(%rdi),%eax
  4022a2:	c3                   	retq   

00000000004022a3 <getval_415>:
  4022a3:	f3 0f 1e fa          	endbr64 
  4022a7:	b8 2f 89 d6 c1       	mov    $0xc1d6892f,%eax
  4022ac:	c3                   	retq   

00000000004022ad <setval_173>:
  4022ad:	f3 0f 1e fa          	endbr64 
  4022b1:	c7 07 63 09 d6 90    	movl   $0x90d60963,(%rdi)
  4022b7:	c3                   	retq   

00000000004022b8 <setval_279>:
  4022b8:	f3 0f 1e fa          	endbr64 
  4022bc:	c7 07 48 89 e0 c1    	movl   $0xc1e08948,(%rdi)
  4022c2:	c3                   	retq   

00000000004022c3 <getval_207>:
  4022c3:	f3 0f 1e fa          	endbr64 
  4022c7:	b8 89 d6 84 db       	mov    $0xdb84d689,%eax
  4022cc:	c3                   	retq   

00000000004022cd <setval_282>:
  4022cd:	f3 0f 1e fa          	endbr64 
  4022d1:	c7 07 39 89 ca 91    	movl   $0x91ca8939,(%rdi)
  4022d7:	c3                   	retq   

00000000004022d8 <addval_208>:
  4022d8:	f3 0f 1e fa          	endbr64 
  4022dc:	8d 87 40 89 e0 c3    	lea    -0x3c1f76c0(%rdi),%eax
  4022e2:	c3                   	retq   

00000000004022e3 <getval_250>:
  4022e3:	f3 0f 1e fa          	endbr64 
  4022e7:	b8 48 89 e0 94       	mov    $0x94e08948,%eax
  4022ec:	c3                   	retq   

00000000004022ed <setval_323>:
  4022ed:	f3 0f 1e fa          	endbr64 
  4022f1:	c7 07 89 ca c1 dc    	movl   $0xdcc1ca89,(%rdi)
  4022f7:	c3                   	retq   

00000000004022f8 <getval_316>:
  4022f8:	f3 0f 1e fa          	endbr64 
  4022fc:	b8 48 8d e0 c3       	mov    $0xc3e08d48,%eax
  402301:	c3                   	retq   

0000000000402302 <addval_289>:
  402302:	f3 0f 1e fa          	endbr64 
  402306:	8d 87 89 c1 90 c3    	lea    -0x3c6f3e77(%rdi),%eax
  40230c:	c3                   	retq   

000000000040230d <getval_342>:
  40230d:	f3 0f 1e fa          	endbr64 
  402311:	b8 81 ca 08 d2       	mov    $0xd208ca81,%eax
  402316:	c3                   	retq   

0000000000402317 <addval_295>:
  402317:	f3 0f 1e fa          	endbr64 
  40231b:	8d 87 89 ca 94 d2    	lea    -0x2d6b3577(%rdi),%eax
  402321:	c3                   	retq   

0000000000402322 <getval_240>:
  402322:	f3 0f 1e fa          	endbr64 
  402326:	b8 89 d6 94 c9       	mov    $0xc994d689,%eax
  40232b:	c3                   	retq   

000000000040232c <addval_396>:
  40232c:	f3 0f 1e fa          	endbr64 
  402330:	8d 87 89 c1 00 c0    	lea    -0x3fff3e77(%rdi),%eax
  402336:	c3                   	retq   

0000000000402337 <getval_153>:
  402337:	f3 0f 1e fa          	endbr64 
  40233b:	b8 48 89 e0 c3       	mov    $0xc3e08948,%eax
  402340:	c3                   	retq   

0000000000402341 <setval_463>:
  402341:	f3 0f 1e fa          	endbr64 
  402345:	c7 07 a9 d6 08 db    	movl   $0xdb08d6a9,(%rdi)
  40234b:	c3                   	retq   

000000000040234c <setval_152>:
  40234c:	f3 0f 1e fa          	endbr64 
  402350:	c7 07 8d ca 38 db    	movl   $0xdb38ca8d,(%rdi)
  402356:	c3                   	retq   

0000000000402357 <getval_298>:
  402357:	f3 0f 1e fa          	endbr64 
  40235b:	b8 48 89 e0 c3       	mov    $0xc3e08948,%eax
  402360:	c3                   	retq   

0000000000402361 <addval_124>:
  402361:	f3 0f 1e fa          	endbr64 
  402365:	8d 87 89 c1 90 c7    	lea    -0x386f3e77(%rdi),%eax
  40236b:	c3                   	retq   

000000000040236c <setval_370>:
  40236c:	f3 0f 1e fa          	endbr64 
  402370:	c7 07 89 c1 18 db    	movl   $0xdb18c189,(%rdi)
  402376:	c3                   	retq   

0000000000402377 <getval_435>:
  402377:	f3 0f 1e fa          	endbr64 
  40237b:	b8 89 c1 78 d2       	mov    $0xd278c189,%eax
  402380:	c3                   	retq   

0000000000402381 <setval_394>:
  402381:	f3 0f 1e fa          	endbr64 
  402385:	c7 07 89 d6 94 c3    	movl   $0xc394d689,(%rdi)
  40238b:	c3                   	retq   

000000000040238c <addval_392>:
  40238c:	f3 0f 1e fa          	endbr64 
  402390:	8d 87 4a 89 e0 c3    	lea    -0x3c1f76b6(%rdi),%eax
  402396:	c3                   	retq   

0000000000402397 <end_farm>:
  402397:	f3 0f 1e fa          	endbr64 
  40239b:	b8 01 00 00 00       	mov    $0x1,%eax
  4023a0:	c3                   	retq   
